target datalayout = "e-m:e-p270:32:32-p271:32:32-p272:64:64-i64:64-i128:128-f80:128-n8:16:32:64-S128"
target triple = "x86_64-pc-linux-gnu"

%"class.std::vector" = type { %"struct.std::_Vector_base" }
%"struct.std::_Vector_base" = type { %"struct.std::_Vector_base<ozz::animation::offline::RawSkeleton::Joint, ozz::StdAllocator<ozz::animation::offline::RawSkeleton::Joint>>::_Vector_impl" }
%"struct.std::_Vector_base<ozz::animation::offline::RawSkeleton::Joint, ozz::StdAllocator<ozz::animation::offline::RawSkeleton::Joint>>::_Vector_impl" = type { %"struct.std::_Vector_base<ozz::animation::offline::RawSkeleton::Joint, ozz::StdAllocator<ozz::animation::offline::RawSkeleton::Joint>>::_Vector_impl_data" }
%"struct.std::_Vector_base<ozz::animation::offline::RawSkeleton::Joint, ozz::StdAllocator<ozz::animation::offline::RawSkeleton::Joint>>::_Vector_impl_data" = type { ptr, ptr, ptr }
%"struct.ozz::animation::offline::(anonymous namespace)::JointCounter" = type { i32 }
%"struct.ozz::animation::offline::RawSkeleton::Joint" = type { %"class.std::vector", %"class.std::__cxx11::basic_string", %"struct.ozz::math::Transform" }
%"class.std::__cxx11::basic_string" = type { %"struct.std::__cxx11::basic_string<char, std::char_traits<char>, ozz::StdAllocator<char>>::_Alloc_hider", i64, %union.anon }
%"struct.std::__cxx11::basic_string<char, std::char_traits<char>, ozz::StdAllocator<char>>::_Alloc_hider" = type { ptr }
%union.anon = type { i64, [8 x i8] }
%"struct.ozz::math::Transform" = type { %"struct.ozz::math::Float3", %"struct.ozz::math::Quaternion", %"struct.ozz::math::Float3" }
%"struct.ozz::math::Quaternion" = type { float, float, float, float }
%"struct.ozz::math::Float3" = type { float, float, float }

; Function Attrs: mustprogress nounwind uwtable
define internal void @_ZN3ozz9animation7offline12_GLOBAL__N_112JointCounterclERKNS1_11RawSkeleton5JointEPS6_(ptr noundef nonnull align 4 dereferenceable(4) %0, ptr noundef nonnull align 8 dereferenceable(96) %1, ptr noundef %2) #0 align 2 {
  %4 = alloca ptr, align 8
  %5 = alloca ptr, align 8
  %6 = alloca ptr, align 8
  store ptr %0, ptr %4, align 8, !tbaa !20
  store ptr %1, ptr %5, align 8, !tbaa !31
  store ptr %2, ptr %6, align 8, !tbaa !31
  %7 = load ptr, ptr %4, align 8
  %8 = getelementptr inbounds nuw %"struct.ozz::animation::offline::(anonymous namespace)::JointCounter", ptr %7, i32 0, i32 0
  %9 = load i32, ptr %8, align 4, !tbaa !15
  %10 = add nsw i32 %9, 1
  store i32 %10, ptr %8, align 4, !tbaa !15
  ret void
}

; Function Attrs: mustprogress nounwind uwtable
define linkonce_odr dso_local noundef nonnull align 8 dereferenceable(96) ptr @_ZNKSt6vectorIN3ozz9animation7offline11RawSkeleton5JointENS0_12StdAllocatorIS4_EEEixEm(ptr noundef nonnull align 8 dereferenceable(24) %0, i64 noundef %1) #0 comdat align 2 {
  %3 = alloca ptr, align 8
  %4 = alloca i64, align 8
  store ptr %0, ptr %3, align 8, !tbaa !9
  store i64 %1, ptr %4, align 8, !tbaa !42
  %5 = load ptr, ptr %3, align 8
  %6 = getelementptr inbounds nuw %"struct.std::_Vector_base", ptr %5, i32 0, i32 0
  %7 = getelementptr inbounds nuw %"struct.std::_Vector_base<ozz::animation::offline::RawSkeleton::Joint, ozz::StdAllocator<ozz::animation::offline::RawSkeleton::Joint>>::_Vector_impl_data", ptr %6, i32 0, i32 0
  %8 = load ptr, ptr %7, align 8, !tbaa !11
  %9 = load i64, ptr %4, align 8, !tbaa !42
  %10 = getelementptr inbounds nuw %"struct.ozz::animation::offline::RawSkeleton::Joint", ptr %8, i64 %9
  ret ptr %10
}

; Function Attrs: mustprogress nounwind uwtable
define linkonce_odr dso_local noundef i64 @_ZNKSt6vectorIN3ozz9animation7offline11RawSkeleton5JointENS0_12StdAllocatorIS4_EEE4sizeEv(ptr noundef nonnull align 8 dereferenceable(24) %0) #0 comdat align 2 {
  %2 = alloca ptr, align 8
  store ptr %0, ptr %2, align 8, !tbaa !9
  %3 = load ptr, ptr %2, align 8
  %4 = getelementptr inbounds nuw %"struct.std::_Vector_base", ptr %3, i32 0, i32 0
  %5 = getelementptr inbounds nuw %"struct.std::_Vector_base<ozz::animation::offline::RawSkeleton::Joint, ozz::StdAllocator<ozz::animation::offline::RawSkeleton::Joint>>::_Vector_impl_data", ptr %4, i32 0, i32 1
  %6 = load ptr, ptr %5, align 8, !tbaa !14
  %7 = getelementptr inbounds nuw %"struct.std::_Vector_base", ptr %3, i32 0, i32 0
  %8 = getelementptr inbounds nuw %"struct.std::_Vector_base<ozz::animation::offline::RawSkeleton::Joint, ozz::StdAllocator<ozz::animation::offline::RawSkeleton::Joint>>::_Vector_impl_data", ptr %7, i32 0, i32 0
  %9 = load ptr, ptr %8, align 8, !tbaa !11
  %10 = ptrtoint ptr %6 to i64
  %11 = ptrtoint ptr %9 to i64
  %12 = sub i64 %10, %11
  %13 = sdiv exact i64 %12, 96
  ret i64 %13
}

; Function Attrs: inlinehint mustprogress uwtable
define internal void @_ZN3ozz9animation7offline12_GLOBAL__N_123_IterHierarchyRecurseDFINS2_12JointCounterEEEvRKSt6vectorINS1_11RawSkeleton5JointENS_12StdAllocatorIS7_EEEPKS7_RT_(ptr noundef nonnull align 8 dereferenceable(24) %0, ptr noundef %1, ptr noundef nonnull align 4 dereferenceable(4) %2) #3 {
  %4 = alloca ptr, align 8
  %5 = alloca ptr, align 8
  %6 = alloca ptr, align 8
  %7 = alloca i64, align 8
  %8 = alloca ptr, align 8
  store ptr %0, ptr %4, align 8, !tbaa !9
  store ptr %1, ptr %5, align 8, !tbaa !31
  store ptr %2, ptr %6, align 8, !tbaa !20
  call void @llvm.lifetime.start.p0(i64 8, ptr %7) #8
  store i64 0, ptr %7, align 8, !tbaa !42
  br label %9

9:                                                ; preds = %26, %3
  %10 = load i64, ptr %7, align 8, !tbaa !42
  %11 = load ptr, ptr %4, align 8, !tbaa !9
  %12 = call noundef i64 @_ZNKSt6vectorIN3ozz9animation7offline11RawSkeleton5JointENS0_12StdAllocatorIS4_EEE4sizeEv(ptr noundef nonnull align 8 dereferenceable(24) %11) #8
  %13 = icmp ult i64 %10, %12
  br i1 %13, label %15, label %14

14:                                               ; preds = %9
  call void @llvm.lifetime.end.p0(i64 8, ptr %7) #8
  br label %29

15:                                               ; preds = %9
  call void @llvm.lifetime.start.p0(i64 8, ptr %8) #8
  %16 = load ptr, ptr %4, align 8, !tbaa !9
  %17 = load i64, ptr %7, align 8, !tbaa !42
  %18 = call noundef nonnull align 8 dereferenceable(96) ptr @_ZNKSt6vectorIN3ozz9animation7offline11RawSkeleton5JointENS0_12StdAllocatorIS4_EEEixEm(ptr noundef nonnull align 8 dereferenceable(24) %16, i64 noundef %17) #8
  store ptr %18, ptr %8, align 8, !tbaa !31
  %19 = load ptr, ptr %6, align 8, !tbaa !20
  %20 = load ptr, ptr %8, align 8, !tbaa !31
  %21 = load ptr, ptr %5, align 8, !tbaa !31
  call void @_ZN3ozz9animation7offline12_GLOBAL__N_112JointCounterclERKNS1_11RawSkeleton5JointEPS6_(ptr noundef nonnull align 4 dereferenceable(4) %19, ptr noundef nonnull align 8 dereferenceable(96) %20, ptr noundef %21)
  %22 = load ptr, ptr %8, align 8, !tbaa !31
  %23 = getelementptr inbounds nuw %"struct.ozz::animation::offline::RawSkeleton::Joint", ptr %22, i32 0, i32 0
  %24 = load ptr, ptr %8, align 8, !tbaa !31
  %25 = load ptr, ptr %6, align 8, !tbaa !20
  call void @_ZN3ozz9animation7offline12_GLOBAL__N_123_IterHierarchyRecurseDFINS2_12JointCounterEEEvRKSt6vectorINS1_11RawSkeleton5JointENS_12StdAllocatorIS7_EEEPKS7_RT_(ptr noundef nonnull align 8 dereferenceable(24) %23, ptr noundef %24, ptr noundef nonnull align 4 dereferenceable(4) %25)
  call void @llvm.lifetime.end.p0(i64 8, ptr %8) #8
  br label %26

26:                                               ; preds = %15
  %27 = load i64, ptr %7, align 8, !tbaa !42
  %28 = add i64 %27, 1
  store i64 %28, ptr %7, align 8, !tbaa !42
  br label %9, !llvm.loop !49

29:                                               ; preds = %14
  ret void
}