; Function Attrs: inlinehint mustprogress nofree nosync nounwind memory(readwrite, inaccessiblemem: none) uwtable
define internal fastcc void @_ZN3ozz9animation7offline12_GLOBAL__N_123_IterHierarchyRecurseDFINS2_12JointCounterEEEvRKSt6vectorINS1_11RawSkeleton5JointENS_12StdAllocatorIS7_EEEPKS7_RT_(ptr noundef nonnull readonly align 8 captures(none) dereferenceable(24) %0, ptr noundef nonnull align 4 captures(none) dereferenceable(4) %1) unnamed_addr #6 {
  %3 = getelementptr inbounds nuw i8, ptr %0, i64 8
  %4 = load ptr, ptr %3, align 8, !tbaa !10
  %5 = load ptr, ptr %0, align 8, !tbaa !4
  %.not = icmp eq ptr %4, %5
  br i1 %.not, label %._crit_edge, label %.lr.ph

._crit_edge:                                      ; preds = %.lr.ph, %2
  ret void

.lr.ph:                                           ; preds = %2, %.lr.ph
  %6 = phi ptr [ %12, %.lr.ph ], [ %5, %2 ]
  %.01 = phi i64 [ %10, %.lr.ph ], [ 0, %2 ]
  %7 = getelementptr inbounds nuw %"struct.ozz::animation::offline::RawSkeleton::Joint", ptr %6, i64 %.01
  %8 = load i32, ptr %1, align 4, !tbaa !23
  %9 = add nsw i32 %8, 1
  store i32 %9, ptr %1, align 4, !tbaa !23
  tail call fastcc void @_ZN3ozz9animation7offline12_GLOBAL__N_123_IterHierarchyRecurseDFINS2_12JointCounterEEEvRKSt6vectorINS1_11RawSkeleton5JointENS_12StdAllocatorIS7_EEEPKS7_RT_(ptr noundef nonnull align 8 dereferenceable(24) %7, ptr noundef nonnull align 4 dereferenceable(4) %1)
  %10 = add nuw i64 %.01, 1
  %11 = load ptr, ptr %3, align 8, !tbaa !10
  %12 = load ptr, ptr %0, align 8, !tbaa !4
  %13 = ptrtoint ptr %11 to i64
  %14 = ptrtoint ptr %12 to i64
  %15 = sub i64 %13, %14
  %16 = sdiv exact i64 %15, 96
  %17 = icmp ult i64 %10, %16
  br i1 %17, label %.lr.ph, label %._crit_edge, !llvm.loop !25
}